target datalayout = "e-m:e-p270:32:32-p271:32:32-p272:64:64-i64:64-i128:128-f80:128-n8:16:32:64-S128"
target triple = "x86_64-pc-linux-gnu"

%struct.MatchState = type { ptr, ptr, ptr, i32, [32 x %struct.anon] }
%struct.anon = type { ptr, i64 }

@.str.21 = private unnamed_addr constant [18 x i8] c"too many captures\00", align 1
@.str.26 = private unnamed_addr constant [22 x i8] c"invalid capture index\00", align 1
@.str.27 = private unnamed_addr constant [19 x i8] c"unfinished capture\00", align 1

; Function Attrs: nounwind uwtable
define internal void @push_onecapture(ptr noundef %0, i32 noundef %1, ptr noundef %2, ptr noundef %3) #0 {
  %5 = alloca ptr, align 8
  %6 = alloca i32, align 4
  %7 = alloca ptr, align 8
  %8 = alloca ptr, align 8
  %9 = alloca i64, align 8
  store ptr %0, ptr %5, align 8, !tbaa !37
  store i32 %1, ptr %6, align 4, !tbaa !13
  store ptr %2, ptr %7, align 8, !tbaa !9
  store ptr %3, ptr %8, align 8, !tbaa !9
  %10 = load i32, ptr %6, align 4, !tbaa !13
  %11 = load ptr, ptr %5, align 8, !tbaa !37
  %12 = getelementptr inbounds nuw %struct.MatchState, ptr %11, i32 0, i32 3
  %13 = load i32, ptr %12, align 8, !tbaa !26
  %14 = icmp sge i32 %10, %13
  br i1 %14, label %15, label %34

15:                                               ; preds = %4
  %16 = load i32, ptr %6, align 4, !tbaa !13
  %17 = icmp eq i32 %16, 0
  br i1 %17, label %18, label %28

18:                                               ; preds = %15
  %19 = load ptr, ptr %5, align 8, !tbaa !37
  %20 = getelementptr inbounds nuw %struct.MatchState, ptr %19, i32 0, i32 2
  %21 = load ptr, ptr %20, align 8, !tbaa !22
  %22 = load ptr, ptr %7, align 8, !tbaa !9
  %23 = load ptr, ptr %8, align 8, !tbaa !9
  %24 = load ptr, ptr %7, align 8, !tbaa !9
  %25 = ptrtoint ptr %23 to i64
  %26 = ptrtoint ptr %24 to i64
  %27 = sub i64 %25, %26
  call void @lua_pushlstring(ptr noundef %21, ptr noundef %22, i64 noundef %27)
  br label %33

28:                                               ; preds = %15
  %29 = load ptr, ptr %5, align 8, !tbaa !37
  %30 = getelementptr inbounds nuw %struct.MatchState, ptr %29, i32 0, i32 2
  %31 = load ptr, ptr %30, align 8, !tbaa !22
  %32 = call i32 (ptr, ptr, ...) @luaL_error(ptr noundef %31, ptr noundef @.str.26)
  br label %33

33:                                               ; preds = %28, %18
  br label %83

34:                                               ; preds = %4
  call void @llvm.lifetime.start.p0(i64 8, ptr %9) #8
  %35 = load ptr, ptr %5, align 8, !tbaa !37
  %36 = getelementptr inbounds nuw %struct.MatchState, ptr %35, i32 0, i32 4
  %37 = load i32, ptr %6, align 4, !tbaa !13
  %38 = sext i32 %37 to i64
  %39 = getelementptr inbounds [32 x %struct.anon], ptr %36, i64 0, i64 %38
  %40 = getelementptr inbounds nuw %struct.anon, ptr %39, i32 0, i32 1
  %41 = load i64, ptr %40, align 8, !tbaa !46
  store i64 %41, ptr %9, align 8, !tbaa !11
  %42 = load i64, ptr %9, align 8, !tbaa !11
  %43 = icmp eq i64 %42, -1
  br i1 %43, label %44, label %49

44:                                               ; preds = %34
  %45 = load ptr, ptr %5, align 8, !tbaa !37
  %46 = getelementptr inbounds nuw %struct.MatchState, ptr %45, i32 0, i32 2
  %47 = load ptr, ptr %46, align 8, !tbaa !22
  %48 = call i32 (ptr, ptr, ...) @luaL_error(ptr noundef %47, ptr noundef @.str.27)
  br label %49

49:                                               ; preds = %44, %34
  %50 = load i64, ptr %9, align 8, !tbaa !11
  %51 = icmp eq i64 %50, -2
  br i1 %51, label %52, label %70

52:                                               ; preds = %49
  %53 = load ptr, ptr %5, align 8, !tbaa !37
  %54 = getelementptr inbounds nuw %struct.MatchState, ptr %53, i32 0, i32 2
  %55 = load ptr, ptr %54, align 8, !tbaa !22
  %56 = load ptr, ptr %5, align 8, !tbaa !37
  %57 = getelementptr inbounds nuw %struct.MatchState, ptr %56, i32 0, i32 4
  %58 = load i32, ptr %6, align 4, !tbaa !13
  %59 = sext i32 %58 to i64
  %60 = getelementptr inbounds [32 x %struct.anon], ptr %57, i64 0, i64 %59
  %61 = getelementptr inbounds nuw %struct.anon, ptr %60, i32 0, i32 0
  %62 = load ptr, ptr %61, align 8, !tbaa !44
  %63 = load ptr, ptr %5, align 8, !tbaa !37
  %64 = getelementptr inbounds nuw %struct.MatchState, ptr %63, i32 0, i32 0
  %65 = load ptr, ptr %64, align 8, !tbaa !24
  %66 = ptrtoint ptr %62 to i64
  %67 = ptrtoint ptr %65 to i64
  %68 = sub i64 %66, %67
  %69 = add nsw i64 %68, 1
  call void @lua_pushinteger(ptr noundef %55, i64 noundef %69)
  br label %82

70:                                               ; preds = %49
  %71 = load ptr, ptr %5, align 8, !tbaa !37
  %72 = getelementptr inbounds nuw %struct.MatchState, ptr %71, i32 0, i32 2
  %73 = load ptr, ptr %72, align 8, !tbaa !22
  %74 = load ptr, ptr %5, align 8, !tbaa !37
  %75 = getelementptr inbounds nuw %struct.MatchState, ptr %74, i32 0, i32 4
  %76 = load i32, ptr %6, align 4, !tbaa !13
  %77 = sext i32 %76 to i64
  %78 = getelementptr inbounds [32 x %struct.anon], ptr %75, i64 0, i64 %77
  %79 = getelementptr inbounds nuw %struct.anon, ptr %78, i32 0, i32 0
  %80 = load ptr, ptr %79, align 8, !tbaa !44
  %81 = load i64, ptr %9, align 8, !tbaa !11
  call void @lua_pushlstring(ptr noundef %73, ptr noundef %80, i64 noundef %81)
  br label %82

82:                                               ; preds = %70, %52
  call void @llvm.lifetime.end.p0(i64 8, ptr %9) #8
  br label %83

83:                                               ; preds = %82, %33
  ret void
}

; Function Attrs: nounwind uwtable
define internal i32 @push_captures(ptr noundef %0, ptr noundef %1, ptr noundef %2) #0 {
  %4 = alloca ptr, align 8
  %5 = alloca ptr, align 8
  %6 = alloca ptr, align 8
  %7 = alloca i32, align 4
  %8 = alloca i32, align 4
  store ptr %0, ptr %4, align 8, !tbaa !37
  store ptr %1, ptr %5, align 8, !tbaa !9
  store ptr %2, ptr %6, align 8, !tbaa !9
  call void @llvm.lifetime.start.p0(i64 4, ptr %7) #8
  call void @llvm.lifetime.start.p0(i64 4, ptr %8) #8
  %9 = load ptr, ptr %4, align 8, !tbaa !37
  %10 = getelementptr inbounds nuw %struct.MatchState, ptr %9, i32 0, i32 3
  %11 = load i32, ptr %10, align 8, !tbaa !26
  %12 = icmp eq i32 %11, 0
  br i1 %12, label %13, label %17

13:                                               ; preds = %3
  %14 = load ptr, ptr %5, align 8, !tbaa !9
  %15 = icmp ne ptr %14, null
  br i1 %15, label %16, label %17

16:                                               ; preds = %13
  br label %21

17:                                               ; preds = %13, %3
  %18 = load ptr, ptr %4, align 8, !tbaa !37
  %19 = getelementptr inbounds nuw %struct.MatchState, ptr %18, i32 0, i32 3
  %20 = load i32, ptr %19, align 8, !tbaa !26
  br label %21

21:                                               ; preds = %17, %16
  %22 = phi i32 [ 1, %16 ], [ %20, %17 ]
  store i32 %22, ptr %8, align 4, !tbaa !13
  %23 = load ptr, ptr %4, align 8, !tbaa !37
  %24 = getelementptr inbounds nuw %struct.MatchState, ptr %23, i32 0, i32 2
  %25 = load ptr, ptr %24, align 8, !tbaa !22
  %26 = load i32, ptr %8, align 4, !tbaa !13
  call void @luaL_checkstack(ptr noundef %25, i32 noundef %26, ptr noundef @.str.21)
  store i32 0, ptr %7, align 4, !tbaa !13
  br label %27

27:                                               ; preds = %36, %21
  %28 = load i32, ptr %7, align 4, !tbaa !13
  %29 = load i32, ptr %8, align 4, !tbaa !13
  %30 = icmp slt i32 %28, %29
  br i1 %30, label %31, label %39

31:                                               ; preds = %27
  %32 = load ptr, ptr %4, align 8, !tbaa !37
  %33 = load i32, ptr %7, align 4, !tbaa !13
  %34 = load ptr, ptr %5, align 8, !tbaa !9
  %35 = load ptr, ptr %6, align 8, !tbaa !9
  call void @push_onecapture(ptr noundef %32, i32 noundef %33, ptr noundef %34, ptr noundef %35)
  br label %36

36:                                               ; preds = %31
  %37 = load i32, ptr %7, align 4, !tbaa !13
  %38 = add nsw i32 %37, 1
  store i32 %38, ptr %7, align 4, !tbaa !13
  br label %27, !llvm.loop !43

39:                                               ; preds = %27
  %40 = load i32, ptr %8, align 4, !tbaa !13
  call void @llvm.lifetime.end.p0(i64 4, ptr %8) #8
  call void @llvm.lifetime.end.p0(i64 4, ptr %7) #8
  ret i32 %40
}

; Function Attrs: nounwind uwtable
define internal i32 @gmatch_aux(ptr noundef %0) #0 {
  %2 = alloca i32, align 4
  %3 = alloca ptr, align 8
  %4 = alloca %struct.MatchState, align 8
  %5 = alloca i64, align 8
  %6 = alloca ptr, align 8
  %7 = alloca ptr, align 8
  %8 = alloca ptr, align 8
  %9 = alloca ptr, align 8
  %10 = alloca i64, align 8
  %11 = alloca i32, align 4
  store ptr %0, ptr %3, align 8, !tbaa !4
  call void @llvm.lifetime.start.p0(i64 544, ptr %4) #8
  call void @llvm.lifetime.start.p0(i64 8, ptr %5) #8
  call void @llvm.lifetime.start.p0(i64 8, ptr %6) #8
  %12 = load ptr, ptr %3, align 8, !tbaa !4
  %13 = call ptr @lua_tolstring(ptr noundef %12, i32 noundef -10003, ptr noundef %5)
  store ptr %13, ptr %6, align 8, !tbaa !9
  call void @llvm.lifetime.start.p0(i64 8, ptr %7) #8
  %14 = load ptr, ptr %3, align 8, !tbaa !4
  %15 = call ptr @lua_tolstring(ptr noundef %14, i32 noundef -10004, ptr noundef null)
  store ptr %15, ptr %7, align 8, !tbaa !9
  call void @llvm.lifetime.start.p0(i64 8, ptr %8) #8
  %16 = load ptr, ptr %3, align 8, !tbaa !4
  %17 = getelementptr inbounds nuw %struct.MatchState, ptr %4, i32 0, i32 2
  store ptr %16, ptr %17, align 8, !tbaa !22
  %18 = load ptr, ptr %6, align 8, !tbaa !9
  %19 = getelementptr inbounds nuw %struct.MatchState, ptr %4, i32 0, i32 0
  store ptr %18, ptr %19, align 8, !tbaa !24
  %20 = load ptr, ptr %6, align 8, !tbaa !9
  %21 = load i64, ptr %5, align 8, !tbaa !11
  %22 = getelementptr inbounds nuw i8, ptr %20, i64 %21
  %23 = getelementptr inbounds nuw %struct.MatchState, ptr %4, i32 0, i32 1
  store ptr %22, ptr %23, align 8, !tbaa !25
  %24 = load ptr, ptr %6, align 8, !tbaa !9
  %25 = load ptr, ptr %3, align 8, !tbaa !4
  %26 = call i64 @lua_tointeger(ptr noundef %25, i32 noundef -10005)
  %27 = getelementptr inbounds nuw i8, ptr %24, i64 %26
  store ptr %27, ptr %8, align 8, !tbaa !9
  br label %28

28:                                               ; preds = %62, %1
  %29 = load ptr, ptr %8, align 8, !tbaa !9
  %30 = getelementptr inbounds nuw %struct.MatchState, ptr %4, i32 0, i32 1
  %31 = load ptr, ptr %30, align 8, !tbaa !25
  %32 = icmp ule ptr %29, %31
  br i1 %32, label %33, label %65

33:                                               ; preds = %28
  call void @llvm.lifetime.start.p0(i64 8, ptr %9) #8
  %34 = getelementptr inbounds nuw %struct.MatchState, ptr %4, i32 0, i32 3
  store i32 0, ptr %34, align 8, !tbaa !26
  %35 = load ptr, ptr %8, align 8, !tbaa !9
  %36 = load ptr, ptr %7, align 8, !tbaa !9
  %37 = call ptr @match(ptr noundef %4, ptr noundef %35, ptr noundef %36)
  store ptr %37, ptr %9, align 8, !tbaa !9
  %38 = icmp ne ptr %37, null
  br i1 %38, label %39, label %58

39:                                               ; preds = %33
  call void @llvm.lifetime.start.p0(i64 8, ptr %10) #8
  %40 = load ptr, ptr %9, align 8, !tbaa !9
  %41 = load ptr, ptr %6, align 8, !tbaa !9
  %42 = ptrtoint ptr %40 to i64
  %43 = ptrtoint ptr %41 to i64
  %44 = sub i64 %42, %43
  store i64 %44, ptr %10, align 8, !tbaa !11
  %45 = load ptr, ptr %9, align 8, !tbaa !9
  %46 = load ptr, ptr %8, align 8, !tbaa !9
  %47 = icmp eq ptr %45, %46
  br i1 %47, label %48, label %51

48:                                               ; preds = %39
  %49 = load i64, ptr %10, align 8, !tbaa !11
  %50 = add nsw i64 %49, 1
  store i64 %50, ptr %10, align 8, !tbaa !11
  br label %51

51:                                               ; preds = %48, %39
  %52 = load ptr, ptr %3, align 8, !tbaa !4
  %53 = load i64, ptr %10, align 8, !tbaa !11
  call void @lua_pushinteger(ptr noundef %52, i64 noundef %53)
  %54 = load ptr, ptr %3, align 8, !tbaa !4
  call void @lua_replace(ptr noundef %54, i32 noundef -10005)
  %55 = load ptr, ptr %8, align 8, !tbaa !9
  %56 = load ptr, ptr %9, align 8, !tbaa !9
  %57 = call i32 @push_captures(ptr noundef %4, ptr noundef %55, ptr noundef %56)
  store i32 %57, ptr %2, align 4
  store i32 1, ptr %11, align 4
  call void @llvm.lifetime.end.p0(i64 8, ptr %10) #8
  br label %59

58:                                               ; preds = %33
  store i32 0, ptr %11, align 4
  br label %59

59:                                               ; preds = %58, %51
  call void @llvm.lifetime.end.p0(i64 8, ptr %9) #8
  %60 = load i32, ptr %11, align 4
  switch i32 %60, label %66 [
    i32 0, label %61
  ]

61:                                               ; preds = %59
  br label %62

62:                                               ; preds = %61
  %63 = load ptr, ptr %8, align 8, !tbaa !9
  %64 = getelementptr inbounds nuw i8, ptr %63, i32 1
  store ptr %64, ptr %8, align 8, !tbaa !9
  br label %28, !llvm.loop !57

65:                                               ; preds = %28
  store i32 0, ptr %2, align 4
  store i32 1, ptr %11, align 4
  br label %66

66:                                               ; preds = %65, %59
  call void @llvm.lifetime.end.p0(i64 8, ptr %8) #8
  call void @llvm.lifetime.end.p0(i64 8, ptr %7) #8
  call void @llvm.lifetime.end.p0(i64 8, ptr %6) #8
  call void @llvm.lifetime.end.p0(i64 8, ptr %5) #8
  call void @llvm.lifetime.end.p0(i64 544, ptr %4) #8
  %67 = load i32, ptr %2, align 4
  ret i32 %67
}