; Function Attrs: nounwind uwtable
define internal i32 @gmatch_aux(ptr noundef %0) #0 {
  %2 = alloca %struct.MatchState, align 8
  %3 = alloca i64, align 8
  call void @llvm.lifetime.start.p0(i64 544, ptr nonnull %2) #10
  call void @llvm.lifetime.start.p0(i64 8, ptr nonnull %3) #10
  %4 = call ptr @lua_tolstring(ptr noundef %0, i32 noundef -10003, ptr noundef nonnull %3) #10
  %5 = call ptr @lua_tolstring(ptr noundef %0, i32 noundef -10004, ptr noundef null) #10
  %6 = getelementptr inbounds nuw i8, ptr %2, i64 16
  store ptr %0, ptr %6, align 8, !tbaa !25
  store ptr %4, ptr %2, align 8, !tbaa !27
  %7 = load i64, ptr %3, align 8, !tbaa !4
  %8 = getelementptr inbounds nuw i8, ptr %4, i64 %7
  %9 = getelementptr inbounds nuw i8, ptr %2, i64 8
  store ptr %8, ptr %9, align 8, !tbaa !28
  %10 = call i64 @lua_tointeger(ptr noundef %0, i32 noundef -10005) #10
  %.not35 = icmp samesign ugt i64 %10, %7
  br i1 %.not35, label %push_captures.exit.thread29, label %.lr.ph

.lr.ph:                                           ; preds = %1
  %11 = getelementptr inbounds nuw i8, ptr %4, i64 %10
  %12 = getelementptr inbounds nuw i8, ptr %2, i64 24
  br label %13

13:                                               ; preds = %.lr.ph, %push_captures.exit.thread
  %.02436 = phi ptr [ %11, %.lr.ph ], [ %56, %push_captures.exit.thread ]
  store i32 0, ptr %12, align 8, !tbaa !29
  %14 = call fastcc ptr @match(ptr noundef %2, ptr noundef %.02436, ptr noundef %5)
  %.not26 = icmp eq ptr %14, null
  br i1 %.not26, label %push_captures.exit.thread, label %15

15:                                               ; preds = %13
  %16 = ptrtoint ptr %14 to i64
  %17 = ptrtoint ptr %4 to i64
  %18 = sub i64 %16, %17
  %19 = icmp eq ptr %14, %.02436
  %20 = zext i1 %19 to i64
  %spec.select = add nsw i64 %18, %20
  call void @lua_pushinteger(ptr noundef %0, i64 noundef %spec.select) #10
  call void @lua_replace(ptr noundef %0, i32 noundef -10005) #10
  %21 = load i32, ptr %12, align 8, !tbaa !29
  %22 = icmp eq i32 %21, 0
  %23 = icmp ne ptr %.02436, null
  %or.cond.i = and i1 %23, %22
  %spec.select.i = select i1 %or.cond.i, i32 1, i32 %21
  %24 = load ptr, ptr %6, align 8, !tbaa !25
  call void @luaL_checkstack(ptr noundef %24, i32 noundef %spec.select.i, ptr noundef nonnull @.str.21) #10
  %25 = icmp sgt i32 %spec.select.i, 0
  br i1 %25, label %.lr.ph.i.preheader, label %push_captures.exit.thread29

.lr.ph.i.preheader:                               ; preds = %15
  %26 = ptrtoint ptr %.02436 to i64
  %27 = sub i64 %16, %26
  %28 = getelementptr inbounds nuw i8, ptr %2, i64 32
  %29 = zext nneg i32 %spec.select.i to i64
  br label %.lr.ph.i

.lr.ph.i:                                         ; preds = %.lr.ph.i.preheader, %push_onecapture.exit
  %indvars.iv = phi i64 [ 0, %.lr.ph.i.preheader ], [ %indvars.iv.next, %push_onecapture.exit ]
  %30 = load i32, ptr %12, align 8, !tbaa !29
  %31 = sext i32 %30 to i64
  %.not.i = icmp slt i64 %indvars.iv, %31
  br i1 %.not.i, label %38, label %32

32:                                               ; preds = %.lr.ph.i
  %33 = icmp eq i64 %indvars.iv, 0
  %34 = load ptr, ptr %6, align 8, !tbaa !25
  br i1 %33, label %35, label %36

35:                                               ; preds = %32
  call void @lua_pushlstring(ptr noundef %34, ptr noundef %.02436, i64 noundef %27) #10
  br label %push_onecapture.exit

36:                                               ; preds = %32
  %37 = call i32 (ptr, ptr, ...) @luaL_error(ptr noundef %34, ptr noundef nonnull @.str.26) #10
  br label %push_onecapture.exit

38:                                               ; preds = %.lr.ph.i
  %39 = getelementptr inbounds nuw [32 x %struct.anon], ptr %28, i64 0, i64 %indvars.iv
  %40 = getelementptr inbounds nuw i8, ptr %39, i64 8
  %41 = load i64, ptr %40, align 8, !tbaa !32
  switch i64 %41, label %53 [
    i64 -1, label %42
    i64 -2, label %45
  ]

42:                                               ; preds = %38
  %43 = load ptr, ptr %6, align 8, !tbaa !25
  %44 = call i32 (ptr, ptr, ...) @luaL_error(ptr noundef %43, ptr noundef nonnull @.str.27) #10
  br label %53

45:                                               ; preds = %38
  %46 = load ptr, ptr %6, align 8, !tbaa !25
  %47 = load ptr, ptr %39, align 8, !tbaa !34
  %48 = load ptr, ptr %2, align 8, !tbaa !27
  %49 = ptrtoint ptr %47 to i64
  %50 = ptrtoint ptr %48 to i64
  %51 = add i64 %49, 1
  %52 = sub i64 %51, %50
  call void @lua_pushinteger(ptr noundef %46, i64 noundef %52) #10
  br label %push_onecapture.exit

53:                                               ; preds = %42, %38
  %54 = load ptr, ptr %6, align 8, !tbaa !25
  %55 = load ptr, ptr %39, align 8, !tbaa !34
  call void @lua_pushlstring(ptr noundef %54, ptr noundef %55, i64 noundef %41) #10
  br label %push_onecapture.exit

push_onecapture.exit:                             ; preds = %35, %36, %45, %53
  %indvars.iv.next = add nuw nsw i64 %indvars.iv, 1
  %exitcond.not.i = icmp eq i64 %indvars.iv.next, %29
  br i1 %exitcond.not.i, label %push_captures.exit.thread29, label %.lr.ph.i, !llvm.loop !31

push_captures.exit.thread:                        ; preds = %13
  %56 = getelementptr inbounds nuw i8, ptr %.02436, i64 1
  %57 = load ptr, ptr %9, align 8, !tbaa !28
  %.not = icmp ugt ptr %56, %57
  br i1 %.not, label %push_captures.exit.thread29, label %13, !llvm.loop !50

push_captures.exit.thread29:                      ; preds = %push_captures.exit.thread, %push_onecapture.exit, %1, %15
  %.2 = phi i32 [ %21, %15 ], [ 0, %1 ], [ %spec.select.i, %push_onecapture.exit ], [ 0, %push_captures.exit.thread ]
  call void @llvm.lifetime.end.p0(i64 8, ptr nonnull %3) #10
  call void @llvm.lifetime.end.p0(i64 544, ptr nonnull %2) #10
  ret i32 %.2
}